target datalayout = "e-m:e-p270:32:32-p271:32:32-p272:64:64-i64:64-i128:128-f80:128-n8:16:32:64-S128"
target triple = "x86_64-pc-linux-gnu"

%"class.cv::BRISK_Impl" = type { %"class.cv::BRISK", i32, i32, float, ptr, i32, ptr, ptr, i32, float, float, ptr, ptr, i32, i32 }
%"class.cv::BRISK" = type { %"class.cv::Feature2D" }
%"class.cv::Feature2D" = type { %"class.cv::Algorithm" }
%"class.cv::Algorithm" = type { ptr }

; Function Attrs: mustprogress nounwind uwtable
define linkonce_odr hidden void @_ZN2cv9Feature2DC2Ev(ptr noundef nonnull align 8 dereferenceable(8) %0, ptr noundef %1) unnamed_addr #1 comdat align 2 {
  %3 = alloca ptr, align 8
  %4 = alloca ptr, align 8
  store ptr %0, ptr %3, align 8
  store ptr %1, ptr %4, align 8
  %5 = load ptr, ptr %3, align 8
  %6 = load ptr, ptr %4, align 8
  %7 = load ptr, ptr %6, align 8
  store ptr %7, ptr %5, align 8
  %8 = getelementptr inbounds ptr, ptr %6, i64 1
  %9 = load ptr, ptr %8, align 8
  %10 = load ptr, ptr %5, align 8
  %11 = getelementptr i8, ptr %10, i64 -80
  %12 = load i64, ptr %11, align 8
  %13 = getelementptr inbounds i8, ptr %5, i64 %12
  store ptr %9, ptr %13, align 8
  ret void
}

; Function Attrs: mustprogress nounwind uwtable
define linkonce_odr hidden void @_ZN2cv5BRISKD2Ev(ptr noundef nonnull align 8 dereferenceable(8) %0, ptr noundef %1) unnamed_addr #1 comdat align 2 {
  %3 = alloca ptr, align 8
  %4 = alloca ptr, align 8
  store ptr %0, ptr %3, align 8
  store ptr %1, ptr %4, align 8
  %5 = load ptr, ptr %3, align 8
  %6 = load ptr, ptr %4, align 8
  %7 = getelementptr inbounds ptr, ptr %6, i64 1
  call void @_ZN2cv9Feature2DD2Ev(ptr noundef nonnull align 8 dereferenceable(8) %5, ptr noundef %7) #8
  ret void
}

; Function Attrs: mustprogress uwtable
define linkonce_odr hidden void @_ZN2cv5BRISKC2Ev(ptr noundef nonnull align 8 dereferenceable(8) %0, ptr noundef %1) unnamed_addr #0 comdat align 2 {
  %3 = alloca ptr, align 8
  %4 = alloca ptr, align 8
  store ptr %0, ptr %3, align 8
  store ptr %1, ptr %4, align 8
  %5 = load ptr, ptr %3, align 8
  %6 = load ptr, ptr %4, align 8
  %7 = getelementptr inbounds ptr, ptr %6, i64 1
  call void @_ZN2cv9Feature2DC2Ev(ptr noundef nonnull align 8 dereferenceable(8) %5, ptr noundef %7)
  %8 = load ptr, ptr %6, align 8
  store ptr %8, ptr %5, align 8
  %9 = getelementptr inbounds ptr, ptr %6, i64 3
  %10 = load ptr, ptr %9, align 8
  %11 = load ptr, ptr %5, align 8
  %12 = getelementptr i8, ptr %11, i64 -80
  %13 = load i64, ptr %12, align 8
  %14 = getelementptr inbounds i8, ptr %5, i64 %13
  store ptr %10, ptr %14, align 8
  ret void
}

; Function Attrs: mustprogress uwtable
define hidden void @_ZN2cv10BRISK_ImplC1ERKSt6vectorIfSaIfEERKS1_IiSaIiEEffS7_(ptr noundef nonnull align 8 dereferenceable(96) %0, ptr noundef nonnull align 8 dereferenceable(24) %1, ptr noundef nonnull align 8 dereferenceable(24) %2, float noundef %3, float noundef %4, ptr noundef %5) unnamed_addr #0 align 2 personality ptr @__gxx_personality_v0 {
  %7 = alloca ptr, align 8
  %8 = alloca ptr, align 8
  %9 = alloca ptr, align 8
  %10 = alloca float, align 4
  %11 = alloca float, align 4
  %12 = alloca ptr, align 8
  %13 = alloca ptr, align 8
  %14 = alloca i32, align 4
  store ptr %0, ptr %7, align 8
  store ptr %1, ptr %8, align 8
  store ptr %2, ptr %9, align 8
  store float %3, ptr %10, align 4
  store float %4, ptr %11, align 4
  store ptr %5, ptr %12, align 8
  %15 = load ptr, ptr %7, align 8
  call void @_ZN2cv9AlgorithmC2Ev(ptr noundef nonnull align 8 dereferenceable(8) %15)
  invoke void @_ZN2cv5BRISKC2Ev(ptr noundef nonnull align 8 dereferenceable(8) %15, ptr noundef getelementptr inbounds ([6 x ptr], ptr @_ZTTN2cv10BRISK_ImplE, i64 0, i64 1))
          to label %16 unwind label %24

16:                                               ; preds = %6
  store ptr getelementptr inbounds inrange(-80, 176) ({ [32 x ptr] }, ptr @_ZTVN2cv10BRISK_ImplE, i32 0, i32 0, i32 10), ptr %15, align 8
  store ptr getelementptr inbounds inrange(-80, 176) ({ [32 x ptr] }, ptr @_ZTVN2cv10BRISK_ImplE, i32 0, i32 0, i32 10), ptr %15, align 8
  %17 = load ptr, ptr %8, align 8
  %18 = load ptr, ptr %9, align 8
  %19 = load float, ptr %10, align 4
  %20 = load float, ptr %11, align 4
  invoke void @_ZN2cv10BRISK_Impl14generateKernelERKSt6vectorIfSaIfEERKS1_IiSaIiEEffS9_(ptr noundef nonnull align 8 dereferenceable(96) %15, ptr noundef nonnull align 8 dereferenceable(24) %17, ptr noundef nonnull align 8 dereferenceable(24) %18, float noundef %19, float noundef %20, ptr noundef nonnull align 8 dereferenceable(24) %5)
          to label %21 unwind label %28

21:                                               ; preds = %16
  %22 = getelementptr inbounds %"class.cv::BRISK_Impl", ptr %15, i32 0, i32 1
  store i32 20, ptr %22, align 8
  %23 = getelementptr inbounds %"class.cv::BRISK_Impl", ptr %15, i32 0, i32 2
  store i32 3, ptr %23, align 4
  ret void

24:                                               ; preds = %6
  %25 = landingpad { ptr, i32 }
          cleanup
  %26 = extractvalue { ptr, i32 } %25, 0
  store ptr %26, ptr %13, align 8
  %27 = extractvalue { ptr, i32 } %25, 1
  store i32 %27, ptr %14, align 4
  br label %32

28:                                               ; preds = %16
  %29 = landingpad { ptr, i32 }
          cleanup
  %30 = extractvalue { ptr, i32 } %29, 0
  store ptr %30, ptr %13, align 8
  %31 = extractvalue { ptr, i32 } %29, 1
  store i32 %31, ptr %14, align 4
  call void @_ZN2cv5BRISKD2Ev(ptr noundef nonnull align 8 dereferenceable(8) %15, ptr noundef getelementptr inbounds ([6 x ptr], ptr @_ZTTN2cv10BRISK_ImplE, i64 0, i64 1)) #8
  br label %32

32:                                               ; preds = %28, %24
  call void @_ZN2cv9AlgorithmD2Ev(ptr noundef nonnull align 8 dereferenceable(8) %15) #8
  br label %33

33:                                               ; preds = %32
  %34 = load ptr, ptr %13, align 8
  %35 = load i32, ptr %14, align 4
  %36 = insertvalue { ptr, i32 } poison, ptr %34, 0
  %37 = insertvalue { ptr, i32 } %36, i32 %35, 1
  resume { ptr, i32 } %37
}