; Function Attrs: mustprogress uwtable
define hidden void @_ZN2cv10BRISK_ImplC1ERKSt6vectorIfSaIfEERKS1_IiSaIiEEffS7_(ptr noundef nonnull align 8 dereferenceable(96) %0, ptr nocapture noundef nonnull readonly align 8 dereferenceable(24) %1, ptr nocapture noundef nonnull readonly align 8 dereferenceable(24) %2, float noundef %3, float noundef %4, ptr nocapture noundef readonly %5) unnamed_addr #0 align 2 personality ptr @__gxx_personality_v0 {
  tail call void @_ZN2cv9AlgorithmC2Ev(ptr noundef nonnull align 8 dereferenceable(8) %0)
  store ptr getelementptr inbounds inrange(-80, 176) (i8, ptr @_ZTVN2cv10BRISK_ImplE, i64 80), ptr %0, align 8
  invoke void @_ZN2cv10BRISK_Impl14generateKernelERKSt6vectorIfSaIfEERKS1_IiSaIiEEffS9_(ptr noundef nonnull align 8 dereferenceable(96) %0, ptr noundef nonnull align 8 dereferenceable(24) %1, ptr noundef nonnull align 8 dereferenceable(24) %2, float noundef %3, float noundef %4, ptr noundef nonnull align 8 dereferenceable(24) %5)
          to label %7 unwind label %10

7:                                                ; preds = %6
  %8 = getelementptr inbounds i8, ptr %0, i64 8
  store i32 20, ptr %8, align 8
  %9 = getelementptr inbounds i8, ptr %0, i64 12
  store i32 3, ptr %9, align 4
  ret void

10:                                               ; preds = %6
  %11 = landingpad { ptr, i32 }
          cleanup
  tail call void @_ZN2cv9Feature2DD2Ev(ptr noundef nonnull align 8 dereferenceable(8) %0, ptr noundef nonnull getelementptr inbounds (i8, ptr @_ZTTN2cv10BRISK_ImplE, i64 16)) #22
  tail call void @_ZN2cv9AlgorithmD2Ev(ptr noundef nonnull align 8 dereferenceable(8) %0) #22
  resume { ptr, i32 } %11
}